; Function Attrs: mustprogress uwtable
define noundef float @_Z9dih_anglePKfS0_S0_S0_PK5t_pbcPfS4_S4_S4_S4_PiS5_S5_(ptr noundef %0, ptr noundef %1, ptr noundef %2, ptr noundef %3, ptr noundef %4, ptr noundef %5, ptr noundef %6, ptr noundef %7, ptr nocapture noundef %8, ptr nocapture noundef %9, ptr nocapture noundef writeonly %10, ptr nocapture noundef writeonly %11, ptr nocapture noundef writeonly %12) local_unnamed_addr #4 {
  %.not.i = icmp eq ptr %4, null
  br i1 %.not.i, label %18, label %14

14:                                               ; preds = %13
  %15 = tail call noundef i32 @_Z11pbc_dx_aiucPK5t_pbcPKfS3_Pf(ptr noundef nonnull %4, ptr noundef %0, ptr noundef %1, ptr noundef %5)
  store i32 %15, ptr %10, align 4
  %16 = tail call noundef i32 @_Z11pbc_dx_aiucPK5t_pbcPKfS3_Pf(ptr noundef nonnull %4, ptr noundef %2, ptr noundef %1, ptr noundef %6)
  store i32 %16, ptr %11, align 4
  %17 = tail call noundef i32 @_Z11pbc_dx_aiucPK5t_pbcPKfS3_Pf(ptr noundef nonnull %4, ptr noundef %2, ptr noundef %3, ptr noundef %7)
  br label %_ZN12_GLOBAL__N_112pbc_rvec_subEPK5t_pbcPKfS4_Pf.exit34

18:                                               ; preds = %13
  %19 = getelementptr inbounds i8, ptr %0, i64 8
  %20 = load float, ptr %19, align 4
  %21 = getelementptr inbounds i8, ptr %1, i64 8
  %22 = load float, ptr %21, align 4
  %23 = fsub float %20, %22
  %24 = load <2 x float>, ptr %0, align 4
  %25 = load <2 x float>, ptr %1, align 4
  %26 = fsub <2 x float> %24, %25
  store <2 x float> %26, ptr %5, align 4
  %27 = getelementptr inbounds i8, ptr %5, i64 8
  store float %23, ptr %27, align 4
  store i32 22, ptr %10, align 4
  %28 = getelementptr inbounds i8, ptr %2, i64 8
  %29 = load float, ptr %28, align 4
  %30 = load float, ptr %21, align 4
  %31 = fsub float %29, %30
  %32 = load <2 x float>, ptr %2, align 4
  %33 = load <2 x float>, ptr %1, align 4
  %34 = fsub <2 x float> %32, %33
  store <2 x float> %34, ptr %6, align 4
  %35 = getelementptr inbounds i8, ptr %6, i64 8
  store float %31, ptr %35, align 4
  store i32 22, ptr %11, align 4
  %36 = load float, ptr %28, align 4
  %37 = getelementptr inbounds i8, ptr %3, i64 8
  %38 = load float, ptr %37, align 4
  %39 = fsub float %36, %38
  %40 = load <2 x float>, ptr %2, align 4
  %41 = load <2 x float>, ptr %3, align 4
  %42 = fsub <2 x float> %40, %41
  store <2 x float> %42, ptr %7, align 4
  %43 = getelementptr inbounds i8, ptr %7, i64 8
  store float %39, ptr %43, align 4
  br label %_ZN12_GLOBAL__N_112pbc_rvec_subEPK5t_pbcPKfS4_Pf.exit34

_ZN12_GLOBAL__N_112pbc_rvec_subEPK5t_pbcPKfS4_Pf.exit34: ; preds = %14, %18
  %.0.i33 = phi i32 [ %17, %14 ], [ 22, %18 ]
  store i32 %.0.i33, ptr %12, align 4
  %44 = getelementptr inbounds i8, ptr %5, i64 4
  %45 = load float, ptr %44, align 4
  %46 = getelementptr inbounds i8, ptr %6, i64 8
  %47 = load float, ptr %46, align 4
  %48 = getelementptr inbounds i8, ptr %5, i64 8
  %49 = load float, ptr %48, align 4
  %50 = getelementptr inbounds i8, ptr %6, i64 4
  %51 = load float, ptr %50, align 4
  %52 = fneg float %49
  %53 = fmul float %51, %52
  %54 = tail call float @llvm.fmuladd.f32(float %45, float %47, float %53)
  store float %54, ptr %8, align 4
  %55 = load float, ptr %48, align 4
  %56 = load float, ptr %6, align 4
  %57 = load float, ptr %5, align 4
  %58 = load float, ptr %46, align 4
  %59 = fneg float %57
  %60 = fmul float %58, %59
  %61 = tail call float @llvm.fmuladd.f32(float %55, float %56, float %60)
  %62 = getelementptr inbounds i8, ptr %8, i64 4
  store float %61, ptr %62, align 4
  %63 = load float, ptr %5, align 4
  %64 = load float, ptr %50, align 4
  %65 = load float, ptr %44, align 4
  %66 = load float, ptr %6, align 4
  %67 = fneg float %65
  %68 = fmul float %66, %67
  %69 = tail call float @llvm.fmuladd.f32(float %63, float %64, float %68)
  %70 = getelementptr inbounds i8, ptr %8, i64 8
  store float %69, ptr %70, align 4
  %71 = load float, ptr %50, align 4
  %72 = getelementptr inbounds i8, ptr %7, i64 8
  %73 = load float, ptr %72, align 4
  %74 = load float, ptr %46, align 4
  %75 = getelementptr inbounds i8, ptr %7, i64 4
  %76 = load float, ptr %75, align 4
  %77 = fneg float %74
  %78 = fmul float %76, %77
  %79 = tail call float @llvm.fmuladd.f32(float %71, float %73, float %78)
  store float %79, ptr %9, align 4
  %80 = load float, ptr %46, align 4
  %81 = load float, ptr %7, align 4
  %82 = load float, ptr %6, align 4
  %83 = load float, ptr %72, align 4
  %84 = fneg float %82
  %85 = fmul float %83, %84
  %86 = tail call float @llvm.fmuladd.f32(float %80, float %81, float %85)
  %87 = getelementptr inbounds i8, ptr %9, i64 4
  store float %86, ptr %87, align 4
  %88 = load float, ptr %6, align 4
  %89 = load float, ptr %75, align 4
  %90 = load float, ptr %50, align 4
  %91 = load float, ptr %7, align 4
  %92 = fneg float %90
  %93 = fmul float %91, %92
  %94 = tail call float @llvm.fmuladd.f32(float %88, float %89, float %93)
  %95 = getelementptr inbounds i8, ptr %9, i64 8
  store float %94, ptr %95, align 4
  %96 = load float, ptr %62, align 4
  %97 = load float, ptr %70, align 4
  %98 = fneg float %97
  %99 = fmul float %86, %98
  %100 = tail call float @llvm.fmuladd.f32(float %96, float %94, float %99)
  %101 = load float, ptr %8, align 4
  %102 = fneg float %101
  %103 = fmul float %94, %102
  %104 = tail call float @llvm.fmuladd.f32(float %97, float %79, float %103)
  %105 = fneg float %96
  %106 = fmul float %79, %105
  %107 = tail call float @llvm.fmuladd.f32(float %101, float %86, float %106)
  %108 = fmul float %104, %104
  %109 = tail call float @llvm.fmuladd.f32(float %100, float %100, float %108)
  %110 = tail call noundef float @llvm.fmuladd.f32(float %107, float %107, float %109)
  %sqrt.i.i = tail call noundef float @llvm.sqrt.f32(float %110)
  %111 = fmul float %86, %96
  %112 = tail call float @llvm.fmuladd.f32(float %101, float %79, float %111)
  %113 = tail call noundef float @llvm.fmuladd.f32(float %97, float %94, float %112)
  %114 = tail call noundef float @atan2f(float noundef %sqrt.i.i, float noundef %113) #22
  %115 = load float, ptr %5, align 4
  %116 = load float, ptr %9, align 4
  %117 = load float, ptr %44, align 4
  %118 = load float, ptr %87, align 4
  %119 = fmul float %117, %118
  %120 = tail call float @llvm.fmuladd.f32(float %115, float %116, float %119)
  %121 = load float, ptr %48, align 4
  %122 = load float, ptr %95, align 4
  %123 = tail call noundef float @llvm.fmuladd.f32(float %121, float %122, float %120)
  %124 = fcmp olt float %123, 0.000000e+00
  %125 = fneg float %114
  %126 = select i1 %124, float %125, float %114
  ret float %126
}